(lp0
ccopy_reg
_reconstructor
p1
(cnetworkx.classes.graph
Graph
p2
c__builtin__
object
p3
Ntp4
Rp5
(dp6
S'adjlist_inner_dict_factory'
p7
c__builtin__
dict
p8
sS'node_dict_factory'
p9
g8
sS'edge_attr_dict_factory'
p10
g8
sS'_node'
p11
(dp12
(I16
I9
tp13
(dp14
s(I19
I4
tp15
(dp16
s(I18
I19
tp17
(dp18
s(I8
I5
tp19
(dp20
s(I9
I0
tp21
(dp22
s(I10
I7
tp23
(dp24
s(I0
I17
tp25
(dp26
s(I14
I1
tp27
(dp28
s(I12
I17
tp29
(dp30
s(I15
I4
tp31
(dp32
s(I3
I2
tp33
(dp34
s(I4
I5
tp35
(dp36
s(I19
I13
tp37
(dp38
s(I17
I13
tp39
(dp40
s(I18
I10
tp41
(dp42
s(I8
I12
tp43
(dp44
s(I9
I9
tp45
(dp46
s(I8
I18
tp47
(dp48
s(I11
I15
tp49
(dp50
s(I14
I8
tp51
(dp52
s(I12
I8
tp53
(dp54
s(I15
I13
tp55
(dp56
s(I13
I13
tp57
(dp58
s(I2
I18
tp59
(dp60
s(I0
I14
tp61
(dp62
s(I3
I11
tp63
(dp64
s(I1
I15
tp65
(dp66
s(I4
I12
tp67
(dp68
s(I2
I12
tp69
(dp70
s(I5
I1
tp71
(dp72
s(I3
I17
tp73
(dp74
s(I16
I7
tp75
(dp76
s(I6
I14
tp77
(dp78
s(I19
I18
tp79
(dp80
s(I17
I6
tp81
(dp82
s(I7
I15
tp83
(dp84
s(I18
I5
tp85
(dp86
s(I10
I9
tp87
(dp88
s(I14
I19
tp89
(dp90
s(I12
I7
tp91
(dp92
s(I10
I19
tp93
(dp94
s(I15
I10
tp95
(dp96
s(I13
I6
tp97
(dp98
s(I0
I5
tp99
(dp100
s(I1
I0
tp101
(dp102
s(I4
I11
tp103
(dp104
s(I2
I7
tp105
(dp106
s(I5
I10
tp107
(dp108
s(I4
I17
tp109
(dp110
s(I19
I1
tp111
(dp112
s(I17
I17
tp113
(dp114
s(I8
I0
tp115
(dp116
s(I15
I19
tp117
(dp118
s(I11
I19
tp119
(dp120
s(I16
I11
tp121
(dp122
s(I6
I18
tp123
(dp124
s(I19
I6
tp125
(dp126
s(I17
I10
tp127
(dp128
s(I18
I17
tp129
(dp130
s(I8
I7
tp131
(dp132
s(I9
I6
tp133
(dp134
s(I10
I5
tp135
(dp136
s(I14
I7
tp137
(dp138
s(I1
I18
tp139
(dp140
s(I15
I6
tp141
(dp142
s(I13
I18
tp143
(dp144
s(I0
I9
tp145
(dp146
s(I3
I4
tp147
(dp148
s(I4
I7
tp149
(dp150
s(I5
I6
tp151
(dp152
s(I16
I2
tp153
(dp154
s(I19
I15
tp155
(dp156
s(I17
I3
tp157
(dp158
s(I7
I16
tp159
(dp160
s(I18
I8
tp161
(dp162
s(I8
I14
tp163
(dp164
s(I9
I15
tp165
(dp166
s(I10
I12
tp167
(dp168
s(I11
I1
tp169
(dp170
s(I9
I17
tp171
(dp172
s(I14
I14
tp173
(dp174
s(I12
I10
tp175
(dp176
s(I15
I15
tp177
(dp178
s(I13
I11
tp179
(dp180
s(I2
I16
tp181
(dp182
s(I0
I0
tp183
(dp184
s(I3
I13
tp185
(dp186
s(I1
I13
tp187
(dp188
s(I4
I14
tp189
(dp190
s(I2
I10
tp191
(dp192
s(I5
I15
tp193
(dp194
s(I3
I19
tp195
(dp196
s(I6
I12
tp197
(dp198
s(I17
I4
tp199
(dp200
s(I7
I9
tp201
(dp202
s(I18
I3
tp203
(dp204
s(I14
I17
tp205
(dp206
s(I12
I1
tp207
(dp208
s(I10
I17
tp209
(dp210
s(I13
I4
tp211
(dp212
s(I0
I7
tp213
(dp214
s(I1
I6
tp215
(dp216
s(I2
I5
tp217
(dp218
s(I5
I8
tp219
(dp220
s(I4
I19
tp221
(dp222
s(I7
I6
tp223
(dp224
s(I5
I18
tp225
(dp226
s(I19
I3
tp227
(dp228
s(I8
I2
tp229
(dp230
s(I9
I3
tp231
(dp232
s(I14
I2
tp233
(dp234
s(I3
I1
tp235
(dp236
s(I16
I13
tp237
(dp238
s(I6
I16
tp239
(dp240
s(I19
I8
tp241
(dp242
s(I18
I15
tp243
(dp244
s(I8
I9
tp245
(dp246
s(I9
I4
tp247
(dp248
s(I10
I3
tp249
(dp250
s(I11
I10
tp251
(dp252
s(I14
I5
tp253
(dp254
s(I12
I13
tp255
(dp256
s(I1
I16
tp257
(dp258
s(I15
I0
tp259
(dp260
s(I13
I16
tp261
(dp262
s(I3
I6
tp263
(dp264
s(I1
I10
tp265
(dp266
s(I4
I1
tp267
(dp268
s(I5
I4
tp269
(dp270
s(I16
I4
tp271
(dp272
s(I6
I11
tp273
(dp274
s(I19
I17
tp275
(dp276
s(I7
I18
tp277
(dp278
s(I18
I6
tp279
(dp280
s(I9
I13
tp281
(dp282
s(I10
I10
tp283
(dp284
s(I11
I3
tp285
(dp286
s(I14
I12
tp287
(dp288
s(I12
I4
tp289
(dp290
s(I15
I9
tp291
(dp292
s(I13
I9
tp293
(dp294
s(I3
I15
tp295
(dp296
s(I1
I3
tp297
(dp298
s(I4
I8
tp299
(dp300
s(I2
I8
tp301
(dp302
s(I5
I13
tp303
(dp304
s(I6
I2
tp305
(dp306
s(I7
I11
tp307
(dp308
s(I18
I1
tp309
(dp310
s(I16
I17
tp311
(dp312
s(I12
I3
tp313
(dp314
s(I13
I2
tp315
(dp316
s(I1
I4
tp317
(dp318
s(I2
I3
tp319
(dp320
s(I6
I5
tp321
(dp322
s(I7
I0
tp323
(dp324
s(I5
I16
tp325
(dp326
s(I16
I8
tp327
(dp328
s(I19
I5
tp329
(dp330
s(I18
I18
tp331
(dp332
s(I8
I4
tp333
(dp334
s(I9
I1
tp335
(dp336
s(I10
I6
tp337
(dp338
s(I14
I0
tp339
(dp340
s(I12
I16
tp341
(dp342
s(I15
I5
tp343
(dp344
s(I4
I4
tp345
(dp346
s(I16
I15
tp347
(dp348
s(I19
I10
tp349
(dp350
s(I17
I14
tp351
(dp352
s(I18
I13
tp353
(dp354
s(I8
I11
tp355
(dp356
s(I10
I1
tp357
(dp358
s(I8
I17
tp359
(dp360
s(I11
I12
tp361
(dp362
s(I14
I11
tp363
(dp364
s(I12
I15
tp365
(dp366
s(I15
I2
tp367
(dp368
s(I13
I14
tp369
(dp370
s(I0
I13
tp371
(dp372
s(I3
I8
tp373
(dp374
s(I1
I8
tp375
(dp376
s(I4
I3
tp377
(dp378
s(I2
I15
tp379
(dp380
s(I5
I2
tp381
(dp382
s(I16
I6
tp383
(dp384
s(I6
I9
tp385
(dp386
s(I19
I19
tp387
(dp388
s(I17
I7
tp389
(dp390
s(I7
I12
tp391
(dp392
s(I18
I4
tp393
(dp394
s(I10
I8
tp395
(dp396
s(I11
I5
tp397
(dp398
s(I14
I18
tp399
(dp400
s(I12
I6
tp401
(dp402
s(I10
I18
tp403
(dp404
s(I15
I11
tp405
(dp406
s(I13
I7
tp407
(dp408
s(I0
I4
tp409
(dp410
s(I1
I1
tp411
(dp412
s(I4
I10
tp413
(dp414
s(I2
I6
tp415
(dp416
s(I5
I11
tp417
(dp418
s(I6
I0
tp419
(dp420
s(I4
I16
tp421
(dp422
s(I7
I5
tp423
(dp424
s(I16
I19
tp425
(dp426
s(I17
I18
tp427
(dp428
s(I15
I16
tp429
(dp430
s(I13
I0
tp431
(dp432
s(I11
I16
tp433
(dp434
s(I2
I1
tp435
(dp436
s(I16
I10
tp437
(dp438
s(I19
I7
tp439
(dp440
s(I17
I11
tp441
(dp442
s(I18
I16
tp443
(dp444
s(I8
I6
tp445
(dp446
s(I9
I7
tp447
(dp448
s(I10
I4
tp449
(dp450
s(I0
I18
tp451
(dp452
s(I14
I6
tp453
(dp454
s(I12
I18
tp455
(dp456
s(I15
I7
tp457
(dp458
s(I13
I19
tp459
(dp460
s(I0
I8
tp461
(dp462
s(I3
I5
tp463
(dp464
s(I4
I6
tp465
(dp466
s(I5
I7
tp467
(dp468
s(I16
I1
tp469
(dp470
s(I19
I12
tp471
(dp472
s(I17
I12
tp473
(dp474
s(I7
I17
tp475
(dp476
s(I18
I11
tp477
(dp478
s(I8
I13
tp479
(dp480
s(I9
I8
tp481
(dp482
s(I10
I15
tp483
(dp484
s(I8
I19
tp485
(dp486
s(I11
I14
tp487
(dp488
s(I14
I9
tp489
(dp490
s(I12
I9
tp491
(dp492
s(I13
I12
tp493
(dp494
s(I2
I19
tp495
(dp496
s(I0
I15
tp497
(dp498
s(I3
I10
tp499
(dp500
s(I1
I14
tp501
(dp502
s(I4
I13
tp503
(dp504
s(I2
I13
tp505
(dp506
s(I5
I0
tp507
(dp508
s(I3
I16
tp509
(dp510
s(I6
I15
tp511
(dp512
s(I17
I5
tp513
(dp514
s(I7
I14
tp515
(dp516
s(I18
I2
tp517
(dp518
s(I12
I0
tp519
(dp520
s(I10
I16
tp521
(dp522
s(I0
I6
tp523
(dp524
s(I1
I7
tp525
(dp526
s(I2
I4
tp527
(dp528
s(I5
I9
tp529
(dp530
s(I6
I6
tp531
(dp532
s(I4
I18
tp533
(dp534
s(I7
I7
tp535
(dp536
s(I5
I19
tp537
(dp538
s(I19
I0
tp539
(dp540
s(I17
I16
tp541
(dp542
s(I8
I1
tp543
(dp544
s(I15
I18
tp545
(dp546
s(I11
I18
tp547
(dp548
s(I16
I12
tp549
(dp550
s(I17
I9
tp551
(dp552
s(I18
I14
tp553
(dp554
s(I8
I8
tp555
(dp556
s(I9
I5
tp557
(dp558
s(I10
I2
tp559
(dp560
s(I11
I11
tp561
(dp562
s(I14
I4
tp563
(dp564
s(I12
I12
tp565
(dp566
s(I1
I17
tp567
(dp568
s(I15
I1
tp569
(dp570
s(I13
I17
tp571
(dp572
s(I3
I7
tp573
(dp574
s(I1
I11
tp575
(dp576
s(I5
I5
tp577
(dp578
s(I16
I3
tp579
(dp580
s(I6
I10
tp581
(dp582
s(I19
I14
tp583
(dp584
s(I17
I2
tp585
(dp586
s(I7
I19
tp587
(dp588
s(I18
I9
tp589
(dp590
s(I8
I15
tp591
(dp592
s(I9
I14
tp593
(dp594
s(I10
I13
tp595
(dp596
s(I11
I0
tp597
(dp598
s(I9
I16
tp599
(dp600
s(I14
I15
tp601
(dp602
s(I12
I11
tp603
(dp604
s(I15
I14
tp605
(dp606
s(I13
I10
tp607
(dp608
s(I2
I17
tp609
(dp610
s(I0
I1
tp611
(dp612
s(I3
I12
tp613
(dp614
s(I1
I12
tp615
(dp616
s(I2
I11
tp617
(dp618
s(I5
I14
tp619
(dp620
s(I3
I18
tp621
(dp622
s(I6
I13
tp623
(dp624
s(I7
I8
tp625
(dp626
s(I18
I0
tp627
(dp628
s(I12
I2
tp629
(dp630
s(I13
I3
tp631
(dp632
s(I1
I5
tp633
(dp634
s(I2
I2
tp635
(dp636
s(I6
I4
tp637
(dp638
s(I7
I1
tp639
(dp640
s(I5
I17
tp641
(dp642
s(I19
I2
tp643
(dp644
s(I8
I3
tp645
(dp646
s(I9
I2
tp647
(dp648
s(I14
I3
tp649
(dp650
s(I16
I14
tp651
(dp652
s(I6
I17
tp653
(dp654
s(I19
I11
tp655
(dp656
s(I17
I15
tp657
(dp658
s(I18
I12
tp659
(dp660
s(I8
I10
tp661
(dp662
s(I9
I11
tp663
(dp664
s(I10
I0
tp665
(dp666
s(I8
I16
tp667
(dp668
s(I11
I13
tp669
(dp670
s(I14
I10
tp671
(dp672
s(I12
I14
tp673
(dp674
s(I13
I15
tp675
(dp676
s(I0
I12
tp677
(dp678
s(I3
I9
tp679
(dp680
s(I1
I9
tp681
(dp682
s(I4
I2
tp683
(dp684
s(I2
I14
tp685
(dp686
s(I5
I3
tp687
(dp688
s(I16
I5
tp689
(dp690
s(I6
I8
tp691
(dp692
s(I19
I16
tp693
(dp694
s(I17
I0
tp695
(dp696
s(I7
I13
tp697
(dp698
s(I18
I7
tp699
(dp700
s(I10
I11
tp701
(dp702
s(I11
I2
tp703
(dp704
s(I14
I13
tp705
(dp706
s(I12
I5
tp707
(dp708
s(I15
I8
tp709
(dp710
s(I13
I8
tp711
(dp712
s(I0
I3
tp713
(dp714
s(I3
I14
tp715
(dp716
s(I1
I2
tp717
(dp718
s(I4
I9
tp719
(dp720
s(I2
I9
tp721
(dp722
s(I5
I12
tp723
(dp724
s(I6
I3
tp725
(dp726
s(I7
I10
tp727
(dp728
s(I16
I18
tp729
(dp730
s(I17
I19
tp731
(dp732
s(I15
I17
tp733
(dp734
s(I13
I1
tp735
(dp736
s(I11
I17
tp737
(dp738
s(I2
I0
tp739
(dp740
ssS'graph'
p741
(dp742
sS'nodes'
p743
g1
(cnetworkx.classes.reportviews
NodeView
p744
g3
Ntp745
Rp746
(dp747
S'_nodes'
p748
g12
sbsS'_adj'
p749
(dp750
g13
(dp751
(I16
I10
tp752
(dp753
s(I16
I8
tp754
(dp755
s(I17
I9
tp756
(dp757
ssg15
(dp758
(I19
I5
tp759
(dp760
s(I18
I4
tp761
(dp762
s(I19
I3
tp763
(dp764
ssg17
(dp765
(I17
I19
tp766
(dp767
s(I19
I19
tp768
(dp769
s(I18
I18
tp770
(dp771
ssg19
(dp772
(I8
I6
tp773
(dp774
s(I9
I5
tp775
(dp776
s(I7
I5
tp777
(dp778
s(I8
I4
tp779
(dp780
ssg21
(dp781
(I10
I0
tp782
(dp783
s(I9
I1
tp784
(dp785
ssg23
(dp786
(I10
I6
tp787
(dp788
s(I10
I8
tp789
(dp790
s(I9
I7
tp791
(dp792
ssg25
(dp793
(I1
I17
tp794
(dp795
ssg27
(dp796
(I13
I1
tp797
(dp798
s(I14
I0
tp799
(dp800
s(I15
I1
tp801
(dp802
ssg29
(dp803
(I13
I17
tp804
(dp805
s(I12
I18
tp806
(dp807
s(I11
I17
tp808
(dp809
ssg31
(dp810
(I14
I4
tp811
(dp812
s(I15
I5
tp813
(dp814
s(I16
I4
tp815
(dp816
ssg33
(dp817
(I3
I1
tp818
(dp819
s(I2
I2
tp820
(dp821
ssg35
(dp822
(I4
I6
tp823
(dp824
s(I3
I5
tp825
(dp826
ssg37
(dp827
(I18
I13
tp828
(dp829
s(I19
I12
tp830
(dp831
s(I19
I14
tp832
(dp833
ssg39
(dp834
(I18
I13
tp835
(dp836
s(I16
I13
tp837
(dp838
ssg41
(dp839
(I17
I10
tp840
(dp841
s(I19
I10
tp842
(dp843
s(I18
I11
tp844
(dp845
s(I18
I9
tp846
(dp847
ssg43
(dp848
(I7
I12
tp849
(dp850
s(I8
I11
tp851
(dp852
s(I8
I13
tp853
(dp854
ssg45
(dp855
(I8
I9
tp856
(dp857
s(I9
I8
tp858
(dp859
ssg47
(dp860
(I8
I17
tp861
(dp862
s(I8
I19
tp863
(dp864
s(I7
I18
tp865
(dp866
ssg49
(dp867
(I11
I16
tp868
(dp869
s(I11
I14
tp870
(dp871
ssg51
(dp872
(I14
I7
tp873
(dp874
s(I14
I9
tp875
(dp876
s(I15
I8
tp877
(dp878
s(I13
I8
tp879
(dp880
ssg53
(dp881
(I12
I7
tp882
(dp883
s(I12
I9
tp884
(dp885
ssg55
(dp886
(I15
I14
tp887
(dp888
s(I16
I13
tp889
(dp890
s(I14
I13
tp891
(dp892
ssg57
(dp893
(I12
I13
tp894
(dp895
s(I13
I14
tp896
(dp897
s(I13
I12
tp898
(dp899
s(I14
I13
tp900
(dp901
ssg59
(dp902
(I1
I18
tp903
(dp904
s(I2
I19
tp905
(dp906
s(I2
I17
tp907
(dp908
ssg61
(dp909
(I0
I13
tp910
(dp911
s(I1
I14
tp912
(dp913
s(I0
I15
tp914
(dp915
ssg63
(dp916
(I3
I12
tp917
(dp918
s(I3
I10
tp919
(dp920
s(I2
I11
tp921
(dp922
ssg65
(dp923
(I2
I15
tp924
(dp925
s(I1
I16
tp926
(dp927
s(I0
I15
tp928
(dp929
ssg67
(dp930
(I4
I13
tp931
(dp932
s(I5
I12
tp933
(dp934
s(I3
I12
tp935
(dp936
s(I4
I11
tp937
(dp938
ssg69
(dp939
(I2
I11
tp940
(dp941
s(I2
I13
tp942
(dp943
s(I1
I12
tp944
(dp945
ssg71
(dp946
(I5
I2
tp947
(dp948
s(I5
I0
tp949
(dp950
ssg73
(dp951
(I3
I16
tp952
(dp953
s(I3
I18
tp954
(dp955
s(I2
I17
tp956
(dp957
ssg75
(dp958
(I16
I6
tp959
(dp960
s(I16
I8
tp961
(dp962
s(I15
I7
tp963
(dp964
s(I17
I7
tp965
(dp966
ssg77
(dp967
(I5
I14
tp968
(dp969
s(I7
I14
tp970
(dp971
s(I6
I15
tp972
(dp973
s(I6
I13
tp974
(dp975
ssg79
(dp976
(I19
I17
tp977
(dp978
s(I19
I19
tp979
(dp980
s(I18
I18
tp981
(dp982
ssg81
(dp983
(I17
I7
tp984
(dp985
s(I18
I6
tp986
(dp987
s(I17
I5
tp988
(dp989
ssg83
(dp990
(I6
I15
tp991
(dp992
s(I8
I15
tp993
(dp994
ssg85
(dp995
(I17
I5
tp996
(dp997
s(I18
I4
tp998
(dp999
s(I19
I5
tp1000
(dp1001
ssg87
(dp1002
(I10
I8
tp1003
(dp1004
s(I10
I10
tp1005
(dp1006
ssg89
(dp1007
(I15
I19
tp1008
(dp1009
s(I14
I18
tp1010
(dp1011
s(I13
I19
tp1012
(dp1013
ssg91
(dp1014
(I13
I7
tp1015
(dp1016
s(I12
I6
tp1017
(dp1018
s(I12
I8
tp1019
g883
ssg93
(dp1020
(I11
I19
tp1021
(dp1022
s(I10
I18
tp1023
(dp1024
ssg95
(dp1025
(I15
I11
tp1026
(dp1027
s(I14
I10
tp1028
(dp1029
s(I16
I10
tp1030
(dp1031
s(I15
I9
tp1032
(dp1033
ssg97
(dp1034
(I13
I7
tp1035
(dp1036
s(I12
I6
tp1037
(dp1038
s(I14
I6
tp1039
(dp1040
ssg99
(dp1041
(I1
I5
tp1042
(dp1043
s(I0
I6
tp1044
(dp1045
s(I0
I4
tp1046
(dp1047
ssg101
(dp1048
(I2
I0
tp1049
(dp1050
s(I0
I0
tp1051
(dp1052
ssg103
(dp1053
(I4
I12
tp1054
g938
s(I5
I11
tp1055
(dp1056
ssg105
(dp1057
(I2
I6
tp1058
(dp1059
s(I1
I7
tp1060
(dp1061
ssg107
(dp1062
(I5
I11
tp1063
(dp1064
s(I5
I9
tp1065
(dp1066
ssg109
(dp1067
(I4
I18
tp1068
(dp1069
s(I5
I17
tp1070
(dp1071
s(I4
I16
tp1072
(dp1073
ssg111
(dp1074
(I19
I0
tp1075
(dp1076
s(I19
I2
tp1077
(dp1078
s(I18
I1
tp1079
(dp1080
ssg113
(dp1081
(I16
I17
tp1082
(dp1083
s(I17
I18
tp1084
(dp1085
s(I17
I16
tp1086
(dp1087
ssg115
(dp1088
(I8
I1
tp1089
(dp1090
s(I7
I0
tp1091
(dp1092
ssg117
(dp1093
(I14
I19
tp1094
g1009
s(I15
I18
tp1095
(dp1096
ssg119
(dp1097
(I11
I18
tp1098
(dp1099
s(I10
I19
tp1100
g1022
ssg121
(dp1101
(I15
I11
tp1102
(dp1103
s(I17
I11
tp1104
(dp1105
s(I16
I12
tp1106
(dp1107
ssg123
(dp1108
(I5
I18
tp1109
(dp1110
s(I7
I18
tp1111
(dp1112
ssg125
(dp1113
(I18
I6
tp1114
(dp1115
s(I19
I5
tp1116
(dp1117
ssg127
(dp1118
(I16
I10
tp1119
(dp1120
s(I18
I10
tp1121
g841
ssg129
(dp1122
(I18
I16
tp1123
(dp1124
s(I19
I17
tp1125
(dp1126
s(I18
I18
tp1127
(dp1128
ssg131
(dp1129
(I8
I6
tp1130
(dp1131
s(I8
I8
tp1132
(dp1133
s(I9
I7
tp1134
(dp1135
ssg133
(dp1136
(I8
I6
tp1137
(dp1138
s(I10
I6
tp1139
(dp1140
s(I9
I5
tp1141
(dp1142
ssg135
(dp1143
(I9
I5
tp1144
(dp1145
s(I10
I6
tp1146
(dp1147
s(I10
I4
tp1148
(dp1149
ssg137
(dp1150
(I14
I8
tp1151
g874
s(I13
I7
tp1152
(dp1153
s(I15
I7
tp1154
(dp1155
s(I14
I6
tp1156
(dp1157
ssg139
(dp1158
(I0
I18
tp1159
(dp1160
s(I2
I18
tp1161
g904
ssg141
(dp1162
(I16
I6
tp1163
(dp1164
s(I15
I5
tp1165
(dp1166
s(I15
I7
tp1167
(dp1168
s(I14
I6
tp1169
(dp1170
ssg143
(dp1171
(I14
I18
tp1172
(dp1173
s(I13
I19
tp1174
(dp1175
s(I13
I17
tp1176
(dp1177
ssg145
(dp1178
(I0
I8
tp1179
(dp1180
ssg147
(dp1181
(I4
I4
tp1182
(dp1183
s(I2
I4
tp1184
(dp1185
s(I3
I5
tp1186
(dp1187
ssg149
(dp1188
(I3
I7
tp1189
(dp1190
s(I5
I7
tp1191
(dp1192
s(I4
I6
tp1193
(dp1194
ssg151
(dp1195
(I4
I6
tp1196
(dp1197
s(I6
I6
tp1198
(dp1199
ssg153
(dp1200
(I16
I1
tp1201
(dp1202
s(I16
I3
tp1203
(dp1204
s(I15
I2
tp1205
(dp1206
ssg155
(dp1207
(I18
I15
tp1208
(dp1209
s(I19
I16
tp1210
(dp1211
ssg157
(dp1212
(I17
I2
tp1213
(dp1214
s(I16
I3
tp1215
(dp1216
s(I18
I3
tp1217
(dp1218
ssg159
(dp1219
(I7
I17
tp1220
(dp1221
s(I8
I16
tp1222
(dp1223
s(I6
I16
tp1224
(dp1225
ssg161
(dp1226
(I19
I8
tp1227
(dp1228
s(I18
I7
tp1229
(dp1230
s(I18
I9
tp1231
(dp1232
ssg163
(dp1233
(I8
I13
tp1234
(dp1235
s(I7
I14
tp1236
(dp1237
s(I8
I15
tp1238
(dp1239
ssg165
(dp1240
(I10
I15
tp1241
(dp1242
s(I9
I16
tp1243
(dp1244
s(I9
I14
tp1245
(dp1246
s(I8
I15
tp1247
(dp1248
ssg167
(dp1249
(I10
I11
tp1250
(dp1251
s(I10
I13
tp1252
(dp1253
ssg169
(dp1254
(I11
I0
tp1255
(dp1256
s(I11
I2
tp1257
(dp1258
s(I12
I1
tp1259
(dp1260
s(I10
I1
tp1261
(dp1262
ssg171
(dp1263
(I8
I17
tp1264
(dp1265
s(I9
I16
tp1266
(dp1267
s(I10
I17
tp1268
(dp1269
ssg173
(dp1270
(I13
I14
tp1271
(dp1272
s(I15
I14
tp1273
(dp1274
s(I14
I13
tp1275
(dp1276
ssg175
(dp1277
(I12
I9
tp1278
(dp1279
s(I13
I10
tp1280
(dp1281
ssg177
(dp1282
(I15
I16
tp1283
(dp1284
s(I15
I14
tp1285
(dp1286
s(I14
I15
tp1287
(dp1288
s(I16
I15
tp1289
(dp1290
ssg179
(dp1291
(I13
I10
tp1292
(dp1293
s(I12
I11
tp1294
(dp1295
ssg181
(dp1296
(I3
I16
tp1297
(dp1298
s(I2
I15
tp1299
(dp1300
s(I1
I16
tp1301
(dp1302
ssg183
(dp1303
(I0
I1
tp1304
(dp1305
s(I1
I0
tp1306
g1052
ssg185
(dp1307
(I4
I13
tp1308
(dp1309
s(I2
I13
tp1310
(dp1311
s(I3
I12
tp1312
(dp1313
s(I3
I14
tp1314
(dp1315
ssg187
(dp1316
(I1
I14
tp1317
(dp1318
s(I2
I13
tp1319
(dp1320
ssg189
(dp1321
(I5
I14
tp1322
(dp1323
s(I4
I13
tp1324
(dp1325
s(I3
I14
tp1326
(dp1327
ssg191
(dp1328
(I1
I10
tp1329
(dp1330
s(I3
I10
tp1331
(dp1332
ssg193
(dp1333
(I5
I14
tp1334
(dp1335
s(I6
I15
tp1336
(dp1337
s(I5
I16
tp1338
(dp1339
ssg195
(dp1340
(I3
I18
tp1341
(dp1342
s(I2
I19
tp1343
(dp1344
ssg197
(dp1345
(I7
I12
tp1346
(dp1347
s(I5
I12
tp1348
(dp1349
s(I6
I13
tp1350
(dp1351
ssg199
(dp1352
(I17
I5
tp1353
(dp1354
s(I18
I4
tp1355
(dp1356
s(I16
I4
tp1357
(dp1358
ssg201
(dp1359
(I8
I9
tp1360
(dp1361
s(I6
I9
tp1362
(dp1363
s(I7
I8
tp1364
(dp1365
ssg203
(dp1366
(I17
I3
tp1367
g1218
s(I18
I4
tp1368
(dp1369
s(I19
I3
tp1370
(dp1371
s(I18
I2
tp1372
(dp1373
ssg205
(dp1374
(I15
I17
tp1375
(dp1376
ssg207
(dp1377
(I13
I1
tp1378
(dp1379
s(I12
I2
tp1380
(dp1381
s(I11
I1
tp1382
g1260
s(I12
I0
tp1383
(dp1384
ssg209
(dp1385
(I10
I16
tp1386
(dp1387
s(I11
I17
tp1388
(dp1389
s(I9
I17
tp1390
g1269
s(I10
I18
tp1391
(dp1392
ssg211
(dp1393
(I14
I4
tp1394
(dp1395
s(I12
I4
tp1396
(dp1397
ssg213
(dp1398
(I0
I8
tp1399
(dp1400
s(I1
I7
tp1401
(dp1402
ssg215
(dp1403
(I0
I6
tp1404
(dp1405
s(I1
I7
tp1406
(dp1407
s(I2
I6
tp1408
(dp1409
s(I1
I5
tp1410
(dp1411
ssg217
(dp1412
(I1
I5
tp1413
(dp1414
s(I2
I6
tp1415
(dp1416
s(I2
I4
tp1417
(dp1418
s(I3
I5
tp1419
(dp1420
ssg219
(dp1421
(I5
I7
tp1422
(dp1423
s(I6
I8
tp1424
(dp1425
s(I4
I8
tp1426
(dp1427
ssg221
(dp1428
(I4
I18
tp1429
(dp1430
s(I5
I19
tp1431
(dp1432
ssg223
(dp1433
(I8
I6
tp1434
(dp1435
s(I7
I5
tp1436
(dp1437
s(I7
I7
tp1438
(dp1439
s(I6
I6
tp1440
(dp1441
ssg225
(dp1442
(I4
I18
tp1443
(dp1444
s(I6
I18
tp1445
g1110
s(I5
I19
tp1446
(dp1447
s(I5
I17
tp1448
(dp1449
ssg227
(dp1450
(I19
I4
tp1451
g764
s(I19
I2
tp1452
(dp1453
s(I18
I3
tp1454
g1371
ssg229
(dp1455
(I9
I2
tp1456
(dp1457
s(I8
I1
tp1458
(dp1459
ssg231
(dp1460
(I9
I2
tp1461
(dp1462
s(I8
I3
tp1463
(dp1464
s(I9
I4
tp1465
(dp1466
ssg233
(dp1467
(I14
I3
tp1468
(dp1469
s(I13
I2
tp1470
(dp1471
s(I15
I2
tp1472
(dp1473
ssg235
(dp1474
(I3
I2
tp1475
g819
s(I4
I1
tp1476
(dp1477
ssg237
(dp1478
(I17
I13
tp1479
g838
s(I15
I13
tp1480
g890
s(I16
I14
tp1481
(dp1482
ssg239
(dp1483
(I6
I15
tp1484
(dp1485
s(I6
I17
tp1486
(dp1487
s(I7
I16
tp1488
g1225
s(I5
I16
tp1489
(dp1490
ssg241
(dp1491
(I18
I8
tp1492
g1228
s(I19
I7
tp1493
(dp1494
ssg243
(dp1495
(I19
I15
tp1496
g1209
s(I18
I14
tp1497
(dp1498
s(I17
I15
tp1499
(dp1500
ssg245
(dp1501
(I8
I8
tp1502
(dp1503
s(I9
I9
tp1504
g857
s(I7
I9
tp1505
g1361
ssg247
(dp1506
(I9
I5
tp1507
(dp1508
s(I9
I3
tp1509
g1466
ssg249
(dp1510
(I10
I4
tp1511
(dp1512
s(I11
I3
tp1513
(dp1514
s(I10
I2
tp1515
(dp1516
ssg251
(dp1517
(I11
I11
tp1518
(dp1519
s(I10
I10
tp1520
(dp1521
ssg253
(dp1522
(I14
I4
tp1523
(dp1524
s(I15
I5
tp1525
(dp1526
s(I14
I6
tp1527
(dp1528
ssg255
(dp1529
(I12
I12
tp1530
(dp1531
s(I13
I13
tp1532
g895
ssg257
(dp1533
(I2
I16
tp1534
g1302
s(I1
I15
tp1535
g927
ssg259
(dp1536
(I14
I0
tp1537
(dp1538
s(I15
I1
tp1539
(dp1540
ssg261
(dp1541
(I13
I17
tp1542
(dp1543
s(I13
I15
tp1544
(dp1545
s(I12
I16
tp1546
(dp1547
ssg263
(dp1548
(I2
I6
tp1549
(dp1550
s(I4
I6
tp1551
(dp1552
ssg265
(dp1553
(I1
I11
tp1554
(dp1555
s(I2
I10
tp1556
g1330
ssg267
(dp1557
(I3
I1
tp1558
g1477
s(I4
I2
tp1559
(dp1560
ssg269
(dp1561
(I6
I4
tp1562
(dp1563
s(I4
I4
tp1564
(dp1565
s(I5
I5
tp1566
(dp1567
ssg271
(dp1568
(I15
I4
tp1569
g816
s(I16
I3
tp1570
(dp1571
s(I16
I5
tp1572
(dp1573
s(I17
I4
tp1574
g1358
ssg273
(dp1575
(I7
I11
tp1576
(dp1577
s(I6
I10
tp1578
(dp1579
s(I5
I11
tp1580
(dp1581
ssg275
(dp1582
(I19
I16
tp1583
(dp1584
s(I19
I18
tp1585
g978
s(I18
I17
tp1586
g1126
ssg277
(dp1587
(I7
I19
tp1588
(dp1589
s(I6
I18
tp1590
g1112
s(I8
I18
tp1591
g866
s(I7
I17
tp1592
(dp1593
ssg279
(dp1594
(I18
I7
tp1595
(dp1596
s(I17
I6
tp1597
g987
s(I19
I6
tp1598
g1115
ssg281
(dp1599
(I9
I14
tp1600
(dp1601
s(I10
I13
tp1602
(dp1603
s(I8
I13
tp1604
(dp1605
ssg283
(dp1606
(I11
I10
tp1607
g1521
s(I10
I11
tp1608
(dp1609
s(I10
I9
tp1610
g1006
ssg285
(dp1611
(I11
I2
tp1612
(dp1613
s(I10
I3
tp1614
g1514
s(I12
I3
tp1615
(dp1616
ssg287
(dp1617
(I14
I11
tp1618
(dp1619
s(I13
I12
tp1620
(dp1621
s(I14
I13
tp1622
(dp1623
ssg289
(dp1624
(I12
I5
tp1625
(dp1626
s(I13
I4
tp1627
g1397
s(I12
I3
tp1628
(dp1629
ssg291
(dp1630
(I15
I8
tp1631
(dp1632
s(I15
I10
tp1633
g1033
ssg293
(dp1634
(I12
I9
tp1635
(dp1636
s(I13
I8
tp1637
(dp1638
ssg295
(dp1639
(I3
I16
tp1640
(dp1641
s(I3
I14
tp1642
(dp1643
ssg297
(dp1644
(I1
I2
tp1645
(dp1646
s(I0
I3
tp1647
(dp1648
s(I2
I3
tp1649
(dp1650
ssg299
(dp1651
(I3
I8
tp1652
(dp1653
s(I5
I8
tp1654
g1427
ssg301
(dp1655
(I3
I8
tp1656
(dp1657
s(I2
I9
tp1658
(dp1659
ssg303
(dp1660
(I4
I13
tp1661
(dp1662
s(I5
I12
tp1663
(dp1664
s(I6
I13
tp1665
(dp1666
ssg305
(dp1667
(I6
I3
tp1668
(dp1669
s(I5
I2
tp1670
(dp1671
ssg307
(dp1672
(I6
I11
tp1673
g1577
s(I8
I11
tp1674
(dp1675
s(I7
I10
tp1676
(dp1677
ssg309
(dp1678
(I18
I0
tp1679
(dp1680
s(I19
I1
tp1681
g1080
s(I18
I2
tp1682
(dp1683
ssg311
(dp1684
(I16
I18
tp1685
(dp1686
s(I17
I17
tp1687
g1083
ssg313
(dp1688
(I12
I2
tp1689
(dp1690
s(I12
I4
tp1691
g1629
s(I11
I3
tp1692
g1616
s(I13
I3
tp1693
(dp1694
ssg315
(dp1695
(I12
I2
tp1696
(dp1697
s(I14
I2
tp1698
g1471
s(I13
I1
tp1699
(dp1700
ssg317
(dp1701
(I1
I5
tp1702
(dp1703
s(I0
I4
tp1704
(dp1705
ssg319
(dp1706
(I2
I4
tp1707
(dp1708
s(I1
I3
tp1709
g1650
ssg321
(dp1710
(I6
I4
tp1711
(dp1712
s(I7
I5
tp1713
(dp1714
s(I5
I5
tp1715
(dp1716
ssg323
(dp1717
(I8
I0
tp1718
g1092
s(I7
I1
tp1719
(dp1720
ssg325
(dp1721
(I5
I17
tp1722
(dp1723
s(I5
I15
tp1724
g1339
s(I6
I16
tp1725
g1490
ssg327
(dp1726
(I16
I9
tp1727
g755
s(I15
I8
tp1728
(dp1729
s(I16
I7
tp1730
g962
ssg329
(dp1731
(I18
I5
tp1732
g1001
s(I19
I4
tp1733
g760
s(I19
I6
tp1734
g1117
ssg331
(dp1735
(I17
I18
tp1736
(dp1737
s(I19
I18
tp1738
g982
s(I18
I19
tp1739
g771
s(I18
I17
tp1740
g1128
ssg333
(dp1741
(I8
I3
tp1742
(dp1743
s(I8
I5
tp1744
g780
ssg335
(dp1745
(I9
I2
tp1746
(dp1747
s(I9
I0
tp1748
g785
s(I10
I1
tp1749
(dp1750
ssg337
(dp1751
(I10
I7
tp1752
g788
s(I10
I5
tp1753
g1147
s(I9
I6
tp1754
g1140
ssg339
(dp1755
(I14
I1
tp1756
g800
s(I15
I0
tp1757
g1538
ssg341
(dp1758
(I11
I16
tp1759
(dp1760
s(I12
I15
tp1761
(dp1762
s(I13
I16
tp1763
g1547
ssg343
(dp1764
(I15
I4
tp1765
g814
s(I15
I6
tp1766
g1166
s(I16
I5
tp1767
(dp1768
s(I14
I5
tp1769
g1526
ssg345
(dp1770
(I5
I4
tp1771
g1565
s(I3
I4
tp1772
g1183
s(I4
I3
tp1773
(dp1774
ssg347
(dp1775
(I16
I14
tp1776
(dp1777
s(I15
I15
tp1778
g1290
s(I17
I15
tp1779
(dp1780
ssg349
(dp1781
(I19
I11
tp1782
(dp1783
s(I18
I10
tp1784
g843
ssg351
(dp1785
(I17
I15
tp1786
(dp1787
s(I16
I14
tp1788
(dp1789
s(I18
I14
tp1790
(dp1791
ssg353
(dp1792
(I17
I13
tp1793
g836
s(I19
I13
tp1794
g829
ssg355
(dp1795
(I7
I11
tp1796
g1675
s(I9
I11
tp1797
(dp1798
s(I8
I10
tp1799
(dp1800
s(I8
I12
tp1801
g852
ssg357
(dp1802
(I11
I1
tp1803
g1262
s(I9
I1
tp1804
g1750
s(I10
I2
tp1805
(dp1806
ssg359
(dp1807
(I8
I18
tp1808
g862
s(I9
I17
tp1809
g1265
ssg361
(dp1810
(I12
I12
tp1811
(dp1812
s(I11
I11
tp1813
(dp1814
ssg363
(dp1815
(I14
I12
tp1816
g1619
s(I15
I11
tp1817
(dp1818
s(I14
I10
tp1819
(dp1820
ssg365
(dp1821
(I13
I15
tp1822
(dp1823
s(I12
I14
tp1824
(dp1825
s(I12
I16
tp1826
g1762
ssg367
(dp1827
(I14
I2
tp1828
g1473
s(I16
I2
tp1829
g1206
s(I15
I1
tp1830
(dp1831
ssg369
(dp1832
(I13
I13
tp1833
g897
s(I12
I14
tp1834
(dp1835
s(I14
I14
tp1836
g1272
ssg371
(dp1837
(I0
I14
tp1838
g911
s(I0
I12
tp1839
(dp1840
ssg373
(dp1841
(I2
I8
tp1842
g1657
s(I3
I9
tp1843
(dp1844
s(I3
I7
tp1845
(dp1846
s(I4
I8
tp1847
g1653
ssg375
(dp1848
(I0
I8
tp1849
(dp1850
s(I1
I9
tp1851
(dp1852
s(I1
I7
tp1853
(dp1854
ssg377
(dp1855
(I4
I4
tp1856
g1774
s(I5
I3
tp1857
(dp1858
ssg379
(dp1859
(I2
I16
tp1860
g1300
s(I2
I14
tp1861
(dp1862
s(I1
I15
tp1863
g925
ssg381
(dp1864
(I4
I2
tp1865
(dp1866
s(I5
I3
tp1867
(dp1868
s(I6
I2
tp1869
g1671
s(I5
I1
tp1870
g948
ssg383
(dp1871
(I16
I5
tp1872
(dp1873
s(I15
I6
tp1874
g1164
s(I16
I7
tp1875
g960
ssg385
(dp1876
(I6
I10
tp1877
(dp1878
s(I6
I8
tp1879
(dp1880
s(I7
I9
tp1881
g1363
ssg387
(dp1882
(I19
I18
tp1883
g980
s(I18
I19
tp1884
g769
ssg389
(dp1885
(I17
I6
tp1886
g985
s(I16
I7
tp1887
g966
ssg391
(dp1888
(I6
I12
tp1889
g1347
s(I7
I13
tp1890
(dp1891
s(I8
I12
tp1892
g850
ssg393
(dp1893
(I18
I3
tp1894
g1369
s(I18
I5
tp1895
g999
s(I19
I4
tp1896
g762
s(I17
I4
tp1897
g1356
ssg395
(dp1898
(I10
I7
tp1899
g790
s(I9
I8
tp1900
(dp1901
s(I10
I9
tp1902
g1004
ssg397
(dp1903
(I12
I5
tp1904
(dp1905
ssg399
(dp1906
(I14
I19
tp1907
g1011
s(I13
I18
tp1908
g1173
s(I15
I18
tp1909
(dp1910
ssg401
(dp1911
(I13
I6
tp1912
g1038
s(I12
I7
tp1913
g1018
ssg403
(dp1914
(I11
I18
tp1915
(dp1916
s(I10
I19
tp1917
g1024
s(I10
I17
tp1918
g1392
ssg405
(dp1919
(I14
I11
tp1920
g1818
s(I16
I11
tp1921
g1103
s(I15
I10
tp1922
g1027
ssg407
(dp1923
(I13
I6
tp1924
g1036
s(I12
I7
tp1925
g1016
s(I14
I7
tp1926
g1153
ssg409
(dp1927
(I0
I3
tp1928
(dp1929
s(I0
I5
tp1930
g1047
s(I1
I4
tp1931
g1705
ssg411
(dp1932
(I0
I1
tp1933
(dp1934
s(I1
I2
tp1935
(dp1936
s(I2
I1
tp1937
(dp1938
ssg413
(dp1939
(I4
I9
tp1940
(dp1941
s(I3
I10
tp1942
(dp1943
ssg415
(dp1944
(I2
I7
tp1945
g1059
s(I2
I5
tp1946
g1416
s(I1
I6
tp1947
g1409
s(I3
I6
tp1948
g1550
ssg417
(dp1949
(I6
I11
tp1950
g1581
s(I5
I10
tp1951
g1064
s(I4
I11
tp1952
g1056
ssg419
(dp1953
(I5
I0
tp1954
(dp1955
ssg421
(dp1956
(I3
I16
tp1957
(dp1958
s(I4
I17
tp1959
g1073
ssg423
(dp1960
(I7
I6
tp1961
g1437
s(I8
I5
tp1962
g778
s(I6
I5
tp1963
g1714
ssg425
(dp1964
(I17
I19
tp1965
(dp1966
s(I16
I18
tp1967
(dp1968
ssg427
(dp1969
(I17
I17
tp1970
g1085
s(I16
I18
tp1971
(dp1972
s(I17
I19
tp1973
(dp1974
s(I18
I18
tp1975
g1737
ssg429
(dp1976
(I15
I17
tp1977
(dp1978
s(I15
I15
tp1979
g1284
ssg431
(dp1980
(I13
I1
tp1981
(dp1982
s(I12
I0
tp1983
(dp1984
ssg433
(dp1985
(I11
I15
tp1986
g869
s(I10
I16
tp1987
(dp1988
s(I11
I17
tp1989
(dp1990
s(I12
I16
tp1991
g1760
ssg435
(dp1992
(I2
I0
tp1993
(dp1994
s(I1
I1
tp1995
g1938
s(I2
I2
tp1996
(dp1997
ssg437
(dp1998
(I17
I10
tp1999
g1120
s(I16
I9
tp2000
g753
s(I15
I10
tp2001
g1031
ssg439
(dp2002
(I18
I7
tp2003
(dp2004
s(I19
I8
tp2005
g1494
ssg441
(dp2006
(I16
I11
tp2007
g1105
s(I18
I11
tp2008
(dp2009
s(I17
I12
tp2010
(dp2011
ssg443
(dp2012
(I17
I16
tp2013
(dp2014
s(I18
I17
tp2015
g1124
ssg445
(dp2016
(I8
I5
tp2017
g774
s(I7
I6
tp2018
g1435
s(I9
I6
tp2019
g1138
s(I8
I7
tp2020
g1131
ssg447
(dp2021
(I10
I7
tp2022
g792
s(I8
I7
tp2023
g1135
ssg449
(dp2024
(I10
I3
tp2025
g1512
s(I10
I5
tp2026
g1149
ssg451
(dp2027
(I1
I18
tp2028
g1160
ssg453
(dp2029
(I13
I6
tp2030
g1040
s(I15
I6
tp2031
g1170
s(I14
I7
tp2032
g1157
s(I14
I5
tp2033
g1528
ssg455
(dp2034
(I12
I17
tp2035
g807
s(I11
I18
tp2036
(dp2037
ssg457
(dp2038
(I15
I6
tp2039
g1168
s(I14
I7
tp2040
g1155
s(I16
I7
tp2041
g964
ssg459
(dp2042
(I14
I19
tp2043
g1013
s(I13
I18
tp2044
g1175
ssg461
(dp2045
(I0
I9
tp2046
g1180
s(I1
I8
tp2047
g1850
s(I0
I7
tp2048
g1400
ssg463
(dp2049
(I4
I5
tp2050
g826
s(I2
I5
tp2051
g1420
s(I3
I4
tp2052
g1187
ssg465
(dp2053
(I5
I6
tp2054
g1197
s(I4
I5
tp2055
g824
s(I4
I7
tp2056
g1194
s(I3
I6
tp2057
g1552
ssg467
(dp2058
(I4
I7
tp2059
g1192
s(I5
I8
tp2060
g1423
ssg469
(dp2061
(I16
I2
tp2062
g1202
s(I15
I1
tp2063
(dp2064
ssg471
(dp2065
(I19
I13
tp2066
g831
s(I19
I11
tp2067
(dp2068
ssg473
(dp2069
(I17
I11
tp2070
g2011
s(I18
I12
tp2071
(dp2072
s(I16
I12
tp2073
(dp2074
ssg475
(dp2075
(I7
I16
tp2076
g1221
s(I7
I18
tp2077
g1593
ssg477
(dp2078
(I18
I12
tp2079
(dp2080
s(I17
I11
tp2081
g2009
s(I18
I10
tp2082
g845
ssg479
(dp2083
(I9
I13
tp2084
g1605
s(I8
I14
tp2085
g1235
s(I7
I13
tp2086
(dp2087
s(I8
I12
tp2088
g854
ssg481
(dp2089
(I10
I8
tp2090
g1901
s(I9
I9
tp2091
g859
ssg483
(dp2092
(I10
I16
tp2093
(dp2094
s(I9
I15
tp2095
g1242
ssg485
(dp2096
(I7
I19
tp2097
(dp2098
s(I8
I18
tp2099
g864
ssg487
(dp2100
(I11
I15
tp2101
g871
s(I11
I13
tp2102
(dp2103
ssg489
(dp2104
(I14
I10
tp2105
(dp2106
s(I14
I8
tp2107
g876
ssg491
(dp2108
(I13
I9
tp2109
g1636
s(I12
I10
tp2110
g1279
s(I12
I8
tp2111
g885
ssg493
(dp2112
(I14
I12
tp2113
g1621
s(I12
I12
tp2114
(dp2115
s(I13
I13
tp2116
g899
ssg495
(dp2117
(I3
I19
tp2118
g1344
s(I2
I18
tp2119
g906
ssg497
(dp2120
(I0
I14
tp2121
g915
s(I1
I15
tp2122
g929
ssg499
(dp2123
(I4
I10
tp2124
g1943
s(I3
I9
tp2125
(dp2126
s(I3
I11
tp2127
g920
s(I2
I10
tp2128
g1332
ssg501
(dp2129
(I0
I14
tp2130
g913
s(I2
I14
tp2131
(dp2132
s(I1
I13
tp2133
g1318
ssg503
(dp2134
(I4
I14
tp2135
g1325
s(I4
I12
tp2136
g932
s(I5
I13
tp2137
g1662
s(I3
I13
tp2138
g1309
ssg505
(dp2139
(I1
I13
tp2140
g1320
s(I2
I14
tp2141
(dp2142
s(I2
I12
tp2143
g943
s(I3
I13
tp2144
g1311
ssg507
(dp2145
(I5
I1
tp2146
g950
s(I6
I0
tp2147
g1955
ssg509
(dp2148
(I2
I16
tp2149
g1298
s(I3
I17
tp2150
g953
s(I3
I15
tp2151
g1641
s(I4
I16
tp2152
g1958
ssg511
(dp2153
(I6
I16
tp2154
g1485
s(I5
I15
tp2155
g1337
s(I7
I15
tp2156
g992
s(I6
I14
tp2157
g973
ssg513
(dp2158
(I17
I6
tp2159
g989
s(I18
I5
tp2160
g997
s(I17
I4
tp2161
g1354
ssg515
(dp2162
(I8
I14
tp2163
g1237
s(I7
I13
tp2164
(dp2165
s(I6
I14
tp2166
g971
ssg517
(dp2167
(I17
I2
tp2168
(dp2169
s(I19
I2
tp2170
(dp2171
s(I18
I3
tp2172
g1373
s(I18
I1
tp2173
g1683
ssg519
(dp2174
(I12
I1
tp2175
g1384
s(I13
I0
tp2176
g1984
ssg521
(dp2177
(I11
I16
tp2178
g1988
s(I10
I15
tp2179
g2094
s(I9
I16
tp2180
(dp2181
s(I10
I17
tp2182
g1387
ssg523
(dp2183
(I0
I5
tp2184
g1045
s(I1
I6
tp2185
g1405
ssg525
(dp2186
(I2
I7
tp2187
g1061
s(I1
I8
tp2188
g1854
s(I1
I6
tp2189
g1407
s(I0
I7
tp2190
g1402
ssg527
(dp2191
(I2
I3
tp2192
g1708
s(I2
I5
tp2193
g1418
s(I3
I4
tp2194
g1185
ssg529
(dp2195
(I5
I10
tp2196
g1066
s(I4
I9
tp2197
(dp2198
ssg531
(dp2199
(I5
I6
tp2200
g1199
s(I7
I6
tp2201
g1441
ssg533
(dp2202
(I4
I17
tp2203
g1069
s(I3
I18
tp2204
(dp2205
s(I5
I18
tp2206
g1444
s(I4
I19
tp2207
g1430
ssg535
(dp2208
(I7
I8
tp2209
(dp2210
s(I7
I6
tp2211
g1439
ssg537
(dp2212
(I5
I18
tp2213
g1447
s(I4
I19
tp2214
g1432
ssg539
(dp2215
(I18
I0
tp2216
(dp2217
s(I19
I1
tp2218
g1076
ssg541
(dp2219
(I18
I16
tp2220
g2014
s(I17
I17
tp2221
g1087
s(I17
I15
tp2222
(dp2223
ssg543
(dp2224
(I8
I0
tp2225
g1090
s(I8
I2
tp2226
g1459
ssg545
(dp2227
(I15
I19
tp2228
g1096
s(I14
I18
tp2229
g1910
s(I16
I18
tp2230
(dp2231
s(I15
I17
tp2232
(dp2233
ssg547
(dp2234
(I12
I18
tp2235
g2037
s(I11
I17
tp2236
(dp2237
s(I11
I19
tp2238
g1099
s(I10
I18
tp2239
g1916
ssg549
(dp2240
(I16
I11
tp2241
g1107
s(I17
I12
tp2242
g2074
ssg551
(dp2243
(I16
I9
tp2244
g757
s(I18
I9
tp2245
(dp2246
ssg553
(dp2247
(I18
I15
tp2248
g1498
s(I17
I14
tp2249
g1791
s(I19
I14
tp2250
(dp2251
ssg555
(dp2252
(I8
I9
tp2253
g1503
s(I7
I8
tp2254
(dp2255
s(I8
I7
tp2256
g1133
ssg557
(dp2257
(I9
I6
tp2258
g1142
s(I10
I5
tp2259
g1145
s(I8
I5
tp2260
g776
s(I9
I4
tp2261
g1508
ssg559
(dp2262
(I9
I2
tp2263
(dp2264
s(I10
I3
tp2265
g1516
s(I10
I1
tp2266
g1806
ssg561
(dp2267
(I11
I12
tp2268
g1814
s(I11
I10
tp2269
g1519
s(I10
I11
tp2270
(dp2271
ssg563
(dp2272
(I15
I4
tp2273
g812
s(I13
I4
tp2274
g1395
s(I14
I5
tp2275
g1524
ssg565
(dp2276
(I12
I13
tp2277
g1531
s(I13
I12
tp2278
g2115
s(I11
I12
tp2279
g1812
s(I12
I11
tp2280
(dp2281
ssg567
(dp2282
(I0
I17
tp2283
g795
s(I2
I17
tp2284
(dp2285
ssg569
(dp2286
(I16
I1
tp2287
g2064
s(I14
I1
tp2288
g802
s(I15
I0
tp2289
g1540
s(I15
I2
tp2290
g1831
ssg571
(dp2291
(I13
I18
tp2292
g1177
s(I12
I17
tp2293
g805
s(I13
I16
tp2294
g1543
ssg573
(dp2295
(I3
I8
tp2296
g1846
s(I4
I7
tp2297
g1190
ssg575
(dp2298
(I1
I10
tp2299
g1555
s(I2
I11
tp2300
(dp2301
s(I1
I12
tp2302
(dp2303
ssg577
(dp2304
(I5
I4
tp2305
g1567
s(I6
I5
tp2306
g1716
ssg579
(dp2307
(I17
I3
tp2308
g1216
s(I16
I2
tp2309
g1204
s(I16
I4
tp2310
g1571
ssg581
(dp2311
(I6
I11
tp2312
g1579
s(I6
I9
tp2313
g1878
s(I7
I10
tp2314
(dp2315
ssg583
(dp2316
(I18
I14
tp2317
g2251
s(I19
I13
tp2318
g833
ssg585
(dp2319
(I17
I3
tp2320
g1214
s(I18
I2
tp2321
g2169
ssg587
(dp2322
(I8
I19
tp2323
g2098
s(I7
I18
tp2324
g1589
ssg589
(dp2325
(I18
I8
tp2326
g1232
s(I17
I9
tp2327
g2246
s(I18
I10
tp2328
g847
ssg591
(dp2329
(I8
I14
tp2330
g1239
s(I7
I15
tp2331
g994
s(I9
I15
tp2332
g1248
ssg593
(dp2333
(I9
I15
tp2334
g1246
s(I9
I13
tp2335
g1601
ssg595
(dp2336
(I9
I13
tp2337
g1603
s(I10
I12
tp2338
g1253
s(I11
I13
tp2339
(dp2340
ssg597
(dp2341
(I10
I0
tp2342
(dp2343
s(I11
I1
tp2344
g1256
ssg599
(dp2345
(I10
I16
tp2346
g2181
s(I8
I16
tp2347
(dp2348
s(I9
I17
tp2349
g1267
s(I9
I15
tp2350
g1244
ssg601
(dp2351
(I13
I15
tp2352
(dp2353
s(I15
I15
tp2354
g1288
ssg603
(dp2355
(I12
I12
tp2356
g2281
s(I13
I11
tp2357
g1295
ssg605
(dp2358
(I15
I13
tp2359
g888
s(I15
I15
tp2360
g1286
s(I14
I14
tp2361
g1274
ssg607
(dp2362
(I12
I10
tp2363
g1281
s(I14
I10
tp2364
(dp2365
s(I13
I11
tp2366
g1293
ssg609
(dp2367
(I3
I17
tp2368
g957
s(I1
I17
tp2369
g2285
s(I2
I18
tp2370
g908
ssg611
(dp2371
(I0
I0
tp2372
g1305
s(I1
I1
tp2373
g1934
ssg613
(dp2374
(I4
I12
tp2375
g936
s(I3
I13
tp2376
g1313
s(I3
I11
tp2377
g918
ssg615
(dp2378
(I1
I11
tp2379
g2303
s(I2
I12
tp2380
g945
s(I0
I12
tp2381
(dp2382
ssg617
(dp2383
(I2
I12
tp2384
g941
s(I1
I11
tp2385
g2301
s(I3
I11
tp2386
g922
ssg619
(dp2387
(I5
I15
tp2388
g1335
s(I4
I14
tp2389
g1323
s(I6
I14
tp2390
g969
ssg621
(dp2391
(I4
I18
tp2392
g2205
s(I3
I17
tp2393
g955
s(I3
I19
tp2394
g1342
ssg623
(dp2395
(I6
I12
tp2396
g1351
s(I7
I13
tp2397
(dp2398
s(I5
I13
tp2399
g1666
s(I6
I14
tp2400
g975
ssg625
(dp2401
(I8
I8
tp2402
g2255
s(I6
I8
tp2403
(dp2404
s(I7
I9
tp2405
g1365
s(I7
I7
tp2406
g2210
ssg627
(dp2407
(I19
I0
tp2408
g2217
s(I17
I0
tp2409
(dp2410
s(I18
I1
tp2411
g1680
ssg629
(dp2412
(I12
I1
tp2413
g1381
s(I11
I2
tp2414
(dp2415
s(I13
I2
tp2416
g1697
s(I12
I3
tp2417
g1690
ssg631
(dp2418
(I14
I3
tp2419
(dp2420
s(I12
I3
tp2421
g1694
ssg633
(dp2422
(I1
I6
tp2423
g1411
s(I2
I5
tp2424
g1414
s(I0
I5
tp2425
g1043
s(I1
I4
tp2426
g1703
ssg635
(dp2427
(I1
I2
tp2428
(dp2429
s(I3
I2
tp2430
g821
s(I2
I1
tp2431
g1997
ssg637
(dp2432
(I6
I3
tp2433
(dp2434
s(I5
I4
tp2435
g1563
s(I6
I5
tp2436
g1712
ssg639
(dp2437
(I7
I0
tp2438
g1720
ssg641
(dp2439
(I5
I18
tp2440
g1449
s(I6
I17
tp2441
(dp2442
s(I4
I17
tp2443
g1071
s(I5
I16
tp2444
g1723
ssg643
(dp2445
(I19
I1
tp2446
g1078
s(I19
I3
tp2447
g1453
s(I18
I2
tp2448
g2171
ssg645
(dp2449
(I9
I3
tp2450
g1464
s(I8
I4
tp2451
g1743
ssg647
(dp2452
(I9
I1
tp2453
g1747
s(I9
I3
tp2454
g1462
s(I8
I2
tp2455
g1457
s(I10
I2
tp2456
g2264
ssg649
(dp2457
(I14
I2
tp2458
g1469
s(I13
I3
tp2459
g2420
ssg651
(dp2460
(I16
I13
tp2461
g1482
s(I17
I14
tp2462
g1789
s(I16
I15
tp2463
g1777
ssg653
(dp2464
(I5
I17
tp2465
g2442
s(I6
I16
tp2466
g1487
ssg655
(dp2467
(I19
I12
tp2468
g2068
s(I19
I10
tp2469
g1783
ssg657
(dp2470
(I18
I15
tp2471
g1500
s(I17
I16
tp2472
g2223
s(I17
I14
tp2473
g1787
s(I16
I15
tp2474
g1780
ssg659
(dp2475
(I18
I11
tp2476
g2080
s(I17
I12
tp2477
g2072
ssg661
(dp2478
(I8
I11
tp2479
g1800
s(I7
I10
tp2480
(dp2481
ssg663
(dp2482
(I8
I11
tp2483
g1798
s(I10
I11
tp2484
(dp2485
ssg665
(dp2486
(I11
I0
tp2487
g2343
s(I9
I0
tp2488
g783
ssg667
(dp2489
(I9
I16
tp2490
g2348
s(I7
I16
tp2491
g1223
ssg669
(dp2492
(I10
I13
tp2493
g2340
s(I11
I14
tp2494
g2103
ssg671
(dp2495
(I14
I11
tp2496
g1820
s(I14
I9
tp2497
g2106
s(I13
I10
tp2498
g2365
s(I15
I10
tp2499
g1029
ssg673
(dp2500
(I13
I14
tp2501
g1835
s(I12
I15
tp2502
g1825
ssg675
(dp2503
(I12
I15
tp2504
g1823
s(I14
I15
tp2505
g2353
s(I13
I16
tp2506
g1545
ssg677
(dp2507
(I0
I13
tp2508
g1840
s(I1
I12
tp2509
g2382
ssg679
(dp2510
(I3
I8
tp2511
g1844
s(I3
I10
tp2512
g2126
ssg681
(dp2513
(I1
I8
tp2514
g1852
s(I2
I9
tp2515
(dp2516
ssg683
(dp2517
(I4
I1
tp2518
g1560
s(I5
I2
tp2519
g1866
ssg685
(dp2520
(I2
I15
tp2521
g1862
s(I2
I13
tp2522
g2142
s(I1
I14
tp2523
g2132
s(I3
I14
tp2524
(dp2525
ssg687
(dp2526
(I6
I3
tp2527
(dp2528
s(I5
I2
tp2529
g1868
s(I4
I3
tp2530
g1858
ssg689
(dp2531
(I15
I5
tp2532
g1768
s(I16
I6
tp2533
g1873
s(I16
I4
tp2534
g1573
ssg691
(dp2535
(I6
I9
tp2536
g1880
s(I7
I8
tp2537
g2404
s(I5
I8
tp2538
g1425
ssg693
(dp2539
(I19
I17
tp2540
g1584
s(I19
I15
tp2541
g1211
ssg695
(dp2542
(I18
I0
tp2543
g2410
ssg697
(dp2544
(I7
I12
tp2545
g1891
s(I7
I14
tp2546
g2165
s(I8
I13
tp2547
g2087
s(I6
I13
tp2548
g2398
ssg699
(dp2549
(I18
I8
tp2550
g1230
s(I19
I7
tp2551
g2004
s(I18
I6
tp2552
g1596
ssg701
(dp2553
(I10
I12
tp2554
g1251
s(I9
I11
tp2555
g2485
s(I11
I11
tp2556
g2271
s(I10
I10
tp2557
g1609
ssg703
(dp2558
(I12
I2
tp2559
g2415
s(I11
I1
tp2560
g1258
s(I11
I3
tp2561
g1613
ssg705
(dp2562
(I14
I12
tp2563
g1623
s(I15
I13
tp2564
g892
s(I13
I13
tp2565
g901
s(I14
I14
tp2566
g1276
ssg707
(dp2567
(I12
I4
tp2568
g1626
s(I11
I5
tp2569
g1905
ssg709
(dp2570
(I15
I9
tp2571
g1632
s(I16
I8
tp2572
g1729
s(I14
I8
tp2573
g878
ssg711
(dp2574
(I13
I9
tp2575
g1638
s(I14
I8
tp2576
g880
ssg713
(dp2577
(I1
I3
tp2578
g1648
s(I0
I4
tp2579
g1929
ssg715
(dp2580
(I3
I15
tp2581
g1643
s(I2
I14
tp2582
g2525
s(I4
I14
tp2583
g1327
s(I3
I13
tp2584
g1315
ssg717
(dp2585
(I1
I1
tp2586
g1936
s(I1
I3
tp2587
g1646
s(I2
I2
tp2588
g2429
ssg719
(dp2589
(I5
I9
tp2590
g2198
s(I4
I10
tp2591
g1941
ssg721
(dp2592
(I2
I8
tp2593
g1659
s(I1
I9
tp2594
g2516
ssg723
(dp2595
(I6
I12
tp2596
g1349
s(I4
I12
tp2597
g934
s(I5
I13
tp2598
g1664
ssg725
(dp2599
(I6
I4
tp2600
g2434
s(I6
I2
tp2601
g1669
s(I5
I3
tp2602
g2528
ssg727
(dp2603
(I7
I11
tp2604
g1677
s(I6
I10
tp2605
g2315
s(I8
I10
tp2606
g2481
ssg729
(dp2607
(I17
I18
tp2608
g1972
s(I16
I17
tp2609
g1686
s(I16
I19
tp2610
g1968
s(I15
I18
tp2611
g2231
ssg731
(dp2612
(I17
I18
tp2613
g1974
s(I16
I19
tp2614
g1966
s(I18
I19
tp2615
g767
ssg733
(dp2616
(I14
I17
tp2617
g1376
s(I15
I16
tp2618
g1978
s(I15
I18
tp2619
g2233
ssg735
(dp2620
(I13
I2
tp2621
g1700
s(I14
I1
tp2622
g798
s(I12
I1
tp2623
g1379
s(I13
I0
tp2624
g1982
ssg737
(dp2625
(I11
I16
tp2626
g1990
s(I11
I18
tp2627
g2237
s(I12
I17
tp2628
g809
s(I10
I17
tp2629
g1389
ssg739
(dp2630
(I1
I0
tp2631
g1050
s(I2
I1
tp2632
g1994
sssS'adjlist_outer_dict_factory'
p2633
g8
sba(dp2634
(I7
I3
tp2635
I327
s(I16
I9
tp2636
I216
s(I19
I4
tp2637
I319
s(I18
I19
tp2638
I18
s(I8
I5
tp2639
I288
s(I9
I0
tp2640
I389
s(I10
I7
tp2641
I250
s(I0
I17
tp2642
I40
s(I14
I1
tp2643
I374
s(I12
I17
tp2644
I52
s(I15
I4
tp2645
I315
s(I3
I2
tp2646
I343
s(I4
I5
tp2647
I284
s(I16
I0
tp2648
I396
s(I19
I13
tp2649
I139
s(I17
I13
tp2650
I137
s(I18
I10
tp2651
I198
s(I8
I12
tp2652
I148
s(I9
I9
tp2653
I209
s(I10
I14
tp2654
I110
s(I8
I18
tp2655
I28
s(I11
I15
tp2656
I91
s(I9
I19
tp2657
I9
s(I14
I8
tp2658
I234
s(I12
I8
tp2659
I232
s(I15
I13
tp2660
I135
s(I13
I13
tp2661
I133
s(I2
I18
tp2662
I22
s(I0
I14
tp2663
I100
s(I3
I11
tp2664
I163
s(I1
I15
tp2665
I81
s(I4
I12
tp2666
I144
s(I2
I12
tp2667
I142
s(I5
I1
tp2668
I365
s(I3
I17
tp2669
I43
s(I16
I7
tp2670
I256
s(I6
I14
tp2671
I106
s(I19
I18
tp2672
I39
s(I17
I6
tp2673
I277
s(I7
I15
tp2674
I87
s(I18
I5
tp2675
I298
s(I10
I9
tp2676
I210
s(I11
I4
tp2677
I311
s(I14
I19
tp2678
I14
s(I12
I7
tp2679
I252
s(I10
I19
tp2680
I10
s(I15
I10
tp2681
I195
s(I13
I6
tp2682
I273
s(I0
I5
tp2683
I280
s(I1
I0
tp2684
I381
s(I4
I11
tp2685
I164
s(I2
I7
tp2686
I242
s(I5
I10
tp2687
I185
s(I6
I1
tp2688
I366
s(I4
I17
tp2689
I44
s(I7
I4
tp2690
I307
s(I19
I1
tp2691
I379
s(I17
I17
tp2692
I57
s(I8
I0
tp2693
I388
s(I15
I19
tp2694
I15
s(I11
I19
tp2695
I11
s(I16
I11
tp2696
I176
s(I6
I18
tp2697
I26
s(I19
I6
tp2698
I279
s(I17
I10
tp2699
I197
s(I18
I17
tp2700
I58
s(I8
I7
tp2701
I248
s(I9
I6
tp2702
I269
s(I10
I5
tp2703
I290
s(I11
I8
tp2704
I231
s(I0
I19
tp2705
I0
s(I14
I7
tp2706
I254
s(I12
I19
tp2707
I12
s(I1
I18
tp2708
I21
s(I15
I6
tp2709
I275
s(I13
I18
tp2710
I33
s(I0
I9
tp2711
I200
s(I3
I4
tp2712
I303
s(I4
I7
tp2713
I244
s(I5
I6
tp2714
I265
s(I16
I2
tp2715
I356
s(I19
I15
tp2716
I99
s(I17
I3
tp2717
I337
s(I7
I16
tp2718
I67
s(I18
I8
tp2719
I238
s(I8
I14
tp2720
I108
s(I9
I15
tp2721
I89
s(I10
I12
tp2722
I150
s(I11
I1
tp2723
I371
s(I9
I17
tp2724
I49
s(I14
I14
tp2725
I114
s(I12
I10
tp2726
I192
s(I15
I15
tp2727
I95
s(I13
I11
tp2728
I173
s(I2
I16
tp2729
I62
s(I0
I0
tp2730
I380
s(I3
I13
tp2731
I123
s(I1
I13
tp2732
I121
s(I4
I14
tp2733
I104
s(I2
I10
tp2734
I182
s(I5
I15
tp2735
I85
s(I3
I19
tp2736
I3
s(I6
I12
tp2737
I146
s(I17
I4
tp2738
I317
s(I7
I9
tp2739
I207
s(I18
I3
tp2740
I338
s(I11
I6
tp2741
I271
s(I14
I17
tp2742
I54
s(I12
I1
tp2743
I372
s(I10
I17
tp2744
I50
s(I13
I4
tp2745
I313
s(I0
I7
tp2746
I240
s(I1
I6
tp2747
I261
s(I2
I5
tp2748
I282
s(I5
I8
tp2749
I225
s(I6
I7
tp2750
I246
s(I4
I19
tp2751
I4
s(I7
I6
tp2752
I267
s(I5
I18
tp2753
I25
s(I19
I3
tp2754
I339
s(I8
I2
tp2755
I348
s(I9
I3
tp2756
I329
s(I14
I2
tp2757
I354
s(I3
I1
tp2758
I363
s(I16
I13
tp2759
I136
s(I6
I16
tp2760
I66
s(I19
I8
tp2761
I239
s(I17
I8
tp2762
I237
s(I18
I15
tp2763
I98
s(I8
I9
tp2764
I208
s(I9
I4
tp2765
I309
s(I10
I3
tp2766
I330
s(I11
I10
tp2767
I191
s(I14
I5
tp2768
I294
s(I12
I13
tp2769
I132
s(I1
I16
tp2770
I61
s(I15
I0
tp2771
I395
s(I13
I16
tp2772
I73
s(I0
I11
tp2773
I160
s(I3
I6
tp2774
I263
s(I1
I10
tp2775
I181
s(I4
I1
tp2776
I364
s(I5
I4
tp2777
I305
s(I16
I4
tp2778
I316
s(I6
I11
tp2779
I166
s(I19
I17
tp2780
I59
s(I17
I1
tp2781
I377
s(I7
I18
tp2782
I27
s(I18
I6
tp2783
I278
s(I9
I13
tp2784
I129
s(I10
I10
tp2785
I190
s(I11
I3
tp2786
I331
s(I14
I12
tp2787
I154
s(I12
I4
tp2788
I312
s(I15
I9
tp2789
I215
s(I13
I9
tp2790
I213
s(I0
I2
tp2791
I340
s(I3
I15
tp2792
I83
s(I1
I3
tp2793
I321
s(I4
I8
tp2794
I224
s(I2
I8
tp2795
I222
s(I5
I13
tp2796
I125
s(I6
I2
tp2797
I346
s(I7
I11
tp2798
I167
s(I18
I1
tp2799
I378
s(I16
I17
tp2800
I56
s(I12
I3
tp2801
I332
s(I13
I2
tp2802
I353
s(I1
I4
tp2803
I301
s(I2
I3
tp2804
I322
s(I6
I5
tp2805
I286
s(I7
I0
tp2806
I387
s(I5
I16
tp2807
I65
s(I16
I8
tp2808
I236
s(I19
I5
tp2809
I299
s(I18
I18
tp2810
I38
s(I8
I4
tp2811
I308
s(I9
I1
tp2812
I369
s(I10
I6
tp2813
I270
s(I0
I16
tp2814
I60
s(I14
I0
tp2815
I394
s(I12
I16
tp2816
I72
s(I15
I5
tp2817
I295
s(I3
I3
tp2818
I323
s(I4
I4
tp2819
I304
s(I16
I15
tp2820
I96
s(I19
I10
tp2821
I199
s(I17
I14
tp2822
I117
s(I18
I13
tp2823
I138
s(I8
I11
tp2824
I168
s(I9
I10
tp2825
I189
s(I10
I1
tp2826
I370
s(I8
I17
tp2827
I48
s(I11
I12
tp2828
I151
s(I14
I11
tp2829
I174
s(I12
I15
tp2830
I92
s(I15
I2
tp2831
I355
s(I13
I14
tp2832
I113
s(I0
I13
tp2833
I120
s(I3
I8
tp2834
I223
s(I1
I8
tp2835
I221
s(I4
I3
tp2836
I324
s(I2
I15
tp2837
I82
s(I5
I2
tp2838
I345
s(I16
I6
tp2839
I276
s(I6
I9
tp2840
I206
s(I19
I19
tp2841
I19
s(I17
I7
tp2842
I257
s(I7
I12
tp2843
I147
s(I18
I4
tp2844
I318
s(I10
I8
tp2845
I230
s(I11
I5
tp2846
I291
s(I14
I18
tp2847
I34
s(I12
I6
tp2848
I272
s(I10
I18
tp2849
I30
s(I15
I11
tp2850
I175
s(I13
I7
tp2851
I253
s(I0
I4
tp2852
I300
s(I1
I1
tp2853
I361
s(I4
I10
tp2854
I184
s(I2
I6
tp2855
I262
s(I5
I11
tp2856
I165
s(I6
I0
tp2857
I386
s(I4
I16
tp2858
I64
s(I7
I5
tp2859
I287
s(I16
I19
tp2860
I16
s(I17
I18
tp2861
I37
s(I15
I16
tp2862
I75
s(I13
I0
tp2863
I393
s(I11
I16
tp2864
I71
s(I2
I1
tp2865
I362
s(I7
I2
tp2866
I347
s(I16
I10
tp2867
I196
s(I19
I7
tp2868
I259
s(I17
I11
tp2869
I177
s(I18
I16
tp2870
I78
s(I8
I6
tp2871
I268
s(I9
I7
tp2872
I249
s(I10
I4
tp2873
I310
s(I11
I9
tp2874
I211
s(I0
I18
tp2875
I20
s(I14
I6
tp2876
I274
s(I12
I18
tp2877
I32
s(I1
I19
tp2878
I1
s(I15
I7
tp2879
I255
s(I13
I19
tp2880
I13
s(I0
I8
tp2881
I220
s(I3
I5
tp2882
I283
s(I4
I6
tp2883
I264
s(I5
I7
tp2884
I245
s(I16
I1
tp2885
I376
s(I19
I12
tp2886
I159
s(I17
I12
tp2887
I157
s(I7
I17
tp2888
I47
s(I18
I11
tp2889
I178
s(I8
I13
tp2890
I128
s(I9
I8
tp2891
I229
s(I10
I15
tp2892
I90
s(I8
I19
tp2893
I8
s(I11
I14
tp2894
I111
s(I9
I18
tp2895
I29
s(I14
I9
tp2896
I214
s(I12
I9
tp2897
I212
s(I15
I12
tp2898
I155
s(I13
I12
tp2899
I153
s(I2
I19
tp2900
I2
s(I0
I15
tp2901
I80
s(I3
I10
tp2902
I183
s(I1
I14
tp2903
I101
s(I4
I13
tp2904
I124
s(I2
I13
tp2905
I122
s(I5
I0
tp2906
I385
s(I3
I16
tp2907
I63
s(I6
I15
tp2908
I86
s(I17
I5
tp2909
I297
s(I7
I14
tp2910
I107
s(I18
I2
tp2911
I358
s(I11
I7
tp2912
I251
s(I14
I16
tp2913
I74
s(I12
I0
tp2914
I392
s(I10
I16
tp2915
I70
s(I13
I5
tp2916
I293
s(I0
I6
tp2917
I260
s(I1
I7
tp2918
I241
s(I2
I4
tp2919
I302
s(I5
I9
tp2920
I205
s(I6
I6
tp2921
I266
s(I4
I18
tp2922
I24
s(I7
I7
tp2923
I247
s(I5
I19
tp2924
I5
s(I19
I0
tp2925
I399
s(I17
I16
tp2926
I77
s(I8
I1
tp2927
I368
s(I15
I18
tp2928
I35
s(I11
I18
tp2929
I31
s(I16
I12
tp2930
I156
s(I6
I19
tp2931
I6
s(I19
I9
tp2932
I219
s(I17
I9
tp2933
I217
s(I18
I14
tp2934
I118
s(I8
I8
tp2935
I228
s(I9
I5
tp2936
I289
s(I10
I2
tp2937
I350
s(I11
I11
tp2938
I171
s(I14
I4
tp2939
I314
s(I12
I12
tp2940
I152
s(I1
I17
tp2941
I41
s(I15
I1
tp2942
I375
s(I13
I17
tp2943
I53
s(I0
I10
tp2944
I180
s(I3
I7
tp2945
I243
s(I1
I11
tp2946
I161
s(I4
I0
tp2947
I384
s(I5
I5
tp2948
I285
s(I16
I3
tp2949
I336
s(I6
I10
tp2950
I186
s(I19
I14
tp2951
I119
s(I17
I2
tp2952
I357
s(I7
I19
tp2953
I7
s(I18
I9
tp2954
I218
s(I8
I15
tp2955
I88
s(I9
I14
tp2956
I109
s(I10
I13
tp2957
I130
s(I11
I0
tp2958
I391
s(I9
I16
tp2959
I69
s(I14
I15
tp2960
I94
s(I12
I11
tp2961
I172
s(I15
I14
tp2962
I115
s(I13
I10
tp2963
I193
s(I2
I17
tp2964
I42
s(I0
I1
tp2965
I360
s(I3
I12
tp2966
I143
s(I1
I12
tp2967
I141
s(I4
I15
tp2968
I84
s(I2
I11
tp2969
I162
s(I5
I14
tp2970
I105
s(I3
I18
tp2971
I23
s(I6
I13
tp2972
I126
s(I7
I8
tp2973
I227
s(I18
I0
tp2974
I398
s(I16
I16
tp2975
I76
s(I12
I2
tp2976
I352
s(I13
I3
tp2977
I333
s(I1
I5
tp2978
I281
s(I2
I2
tp2979
I342
s(I6
I4
tp2980
I306
s(I7
I1
tp2981
I367
s(I5
I17
tp2982
I45
s(I19
I2
tp2983
I359
s(I8
I3
tp2984
I328
s(I9
I2
tp2985
I349
s(I14
I3
tp2986
I334
s(I3
I0
tp2987
I383
s(I16
I14
tp2988
I116
s(I6
I17
tp2989
I46
s(I19
I11
tp2990
I179
s(I17
I15
tp2991
I97
s(I18
I12
tp2992
I158
s(I8
I10
tp2993
I188
s(I9
I11
tp2994
I169
s(I10
I0
tp2995
I390
s(I8
I16
tp2996
I68
s(I11
I13
tp2997
I131
s(I14
I10
tp2998
I194
s(I12
I14
tp2999
I112
s(I15
I3
tp3000
I335
s(I13
I15
tp3001
I93
s(I0
I12
tp3002
I140
s(I3
I9
tp3003
I203
s(I1
I9
tp3004
I201
s(I4
I2
tp3005
I344
s(I2
I14
tp3006
I102
s(I5
I3
tp3007
I325
s(I16
I5
tp3008
I296
s(I6
I8
tp3009
I226
s(I19
I16
tp3010
I79
s(I17
I0
tp3011
I397
s(I7
I13
tp3012
I127
s(I18
I7
tp3013
I258
s(I9
I12
tp3014
I149
s(I10
I11
tp3015
I170
s(I11
I2
tp3016
I351
s(I14
I13
tp3017
I134
s(I12
I5
tp3018
I292
s(I15
I8
tp3019
I235
s(I13
I8
tp3020
I233
s(I0
I3
tp3021
I320
s(I3
I14
tp3022
I103
s(I1
I2
tp3023
I341
s(I4
I9
tp3024
I204
s(I2
I9
tp3025
I202
s(I5
I12
tp3026
I145
s(I6
I3
tp3027
I326
s(I7
I10
tp3028
I187
s(I16
I18
tp3029
I36
s(I17
I19
tp3030
I17
s(I15
I17
tp3031
I55
s(I13
I1
tp3032
I373
s(I11
I17
tp3033
I51
s(I2
I0
tp3034
I382
sa(dp3035
(I7
I3
tp3036
g3036
sg13
g13
sg15
g15
sg17
g17
sg19
g19
sg21
g21
sg23
g23
sg25
g25
sg27
g27
sg29
g29
sg31
g31
sg33
g33
sg35
g35
s(I16
I0
tp3037
g3037
sg37
g37
sg39
g39
sg41
g41
sg43
g43
sg45
g45
s(I10
I14
tp3038
g3038
sg47
g47
sg49
g49
s(I9
I19
tp3039
g3039
sg51
g51
sg53
g53
sg55
g55
sg57
g57
sg59
g59
sg61
g61
sg63
g63
sg65
g65
sg67
g67
sg69
g69
sg71
g71
sg73
g73
sg75
g75
sg77
g77
sg79
g79
sg81
g81
sg83
g83
sg85
g85
sg87
g87
s(I11
I4
tp3040
g3040
sg89
g89
sg91
g91
sg93
g93
sg95
g95
sg97
g97
sg99
g99
sg101
g101
sg103
g103
sg105
g105
sg107
g107
s(I6
I1
tp3041
g3041
sg109
g109
s(I7
I4
tp3042
g3042
sg111
g111
sg113
g113
sg115
g115
sg117
g117
sg119
g119
sg121
g121
sg123
g123
sg125
g125
sg127
g127
sg129
g129
sg131
g131
sg133
g133
sg135
g135
s(I11
I8
tp3043
g3043
s(I0
I19
tp3044
g3044
sg137
g137
s(I12
I19
tp3045
g3045
sg139
g139
sg141
g141
sg143
g143
sg145
g145
sg147
g147
sg149
g149
sg151
g151
sg153
g153
sg155
g155
sg157
g157
sg159
g159
sg161
g161
sg163
g163
sg165
g165
sg167
g167
sg169
g169
sg171
g171
sg173
g173
sg175
g175
sg177
g177
sg179
g179
sg181
g181
sg183
g183
sg185
g185
sg187
g187
sg189
g189
sg191
g191
sg193
g193
sg195
g195
sg197
g197
sg199
g199
sg201
g201
sg203
g203
s(I11
I6
tp3046
g3046
sg205
g205
sg207
g207
sg209
g209
sg211
g211
sg213
g213
sg215
g215
sg217
g217
sg219
g219
s(I6
I7
tp3047
g3047
sg221
g221
sg223
g223
sg225
g225
sg227
g227
sg229
g229
sg231
g231
sg233
g233
sg235
g235
sg237
g237
sg239
g239
sg241
g241
s(I17
I8
tp3048
g3048
sg243
g243
sg245
g245
sg247
g247
sg249
g249
sg251
g251
sg253
g253
sg255
g255
sg257
g257
sg259
g259
sg261
g261
s(I0
I11
tp3049
g3049
sg263
g263
sg265
g265
sg267
g267
sg269
g269
sg271
g271
sg273
g273
sg275
g275
s(I17
I1
tp3050
g3050
sg277
g277
sg279
g279
sg281
g281
sg283
g283
sg285
g285
sg287
g287
sg289
g289
sg291
g291
sg293
g293
s(I0
I2
tp3051
g3051
sg295
g295
sg297
g297
sg299
g299
sg301
g301
sg303
g303
sg305
g305
sg307
g307
sg309
g309
sg311
g311
sg313
g313
sg315
g315
sg317
g317
sg319
g319
sg321
g321
sg323
g323
sg325
g325
sg327
g327
sg329
g329
sg331
g331
sg333
g333
sg335
g335
sg337
g337
s(I0
I16
tp3052
g3052
sg339
g339
sg341
g341
sg343
g343
s(I3
I3
tp3053
g3053
sg345
g345
sg347
g347
sg349
g349
sg351
g351
sg353
g353
sg355
g355
s(I9
I10
tp3054
g3054
sg357
g357
sg359
g359
sg361
g361
sg363
g363
sg365
g365
sg367
g367
sg369
g369
sg371
g371
sg373
g373
sg375
g375
sg377
g377
sg379
g379
sg381
g381
sg383
g383
sg385
g385
sg387
g387
sg389
g389
sg391
g391
sg393
g393
sg395
g395
sg397
g397
sg399
g399
sg401
g401
sg403
g403
sg405
g405
sg407
g407
sg409
g409
sg411
g411
sg413
g413
sg415
g415
sg417
g417
sg419
g419
sg421
g421
sg423
g423
sg425
g425
sg427
g427
sg429
g429
sg431
g431
sg433
g433
sg435
g435
s(I7
I2
tp3055
g3055
sg437
g437
sg439
g439
sg441
g441
sg443
g443
sg445
g445
sg447
g447
sg449
g449
s(I11
I9
tp3056
g3056
sg451
g451
sg453
g453
sg455
g455
s(I1
I19
tp3057
g3057
sg457
g457
sg459
g459
sg461
g461
sg463
g463
sg465
g465
sg467
g467
sg469
g469
sg471
g471
sg473
g473
sg475
g475
sg477
g477
sg479
g479
sg481
g481
sg483
g483
sg485
g485
sg487
g487
s(I9
I18
tp3058
g3058
sg489
g489
sg491
g491
s(I15
I12
tp3059
g3059
sg493
g493
sg495
g495
sg497
g497
sg499
g499
sg501
g501
sg503
g503
sg505
g505
sg507
g507
sg509
g509
sg511
g511
sg513
g513
sg515
g515
sg517
g517
s(I11
I7
tp3060
g3060
s(I14
I16
tp3061
g3061
sg519
g519
sg521
g521
s(I13
I5
tp3062
g3062
sg523
g523
sg525
g525
sg527
g527
sg529
g529
sg531
g531
sg533
g533
sg535
g535
sg537
g537
sg539
g539
sg541
g541
sg543
g543
sg545
g545
sg547
g547
sg549
g549
s(I6
I19
tp3063
g3063
s(I19
I9
tp3064
g3064
sg551
g551
sg553
g553
sg555
g555
sg557
g557
sg559
g559
sg561
g561
sg563
g563
sg565
g565
sg567
g567
sg569
g569
sg571
g571
s(I0
I10
tp3065
g3065
sg573
g573
sg575
g575
s(I4
I0
tp3066
g3066
sg577
g577
sg579
g579
sg581
g581
sg583
g583
sg585
g585
sg587
g587
sg589
g589
sg591
g591
sg593
g593
sg595
g595
sg597
g597
sg599
g599
sg601
g601
sg603
g603
sg605
g605
sg607
g607
sg609
g609
sg611
g611
sg613
g613
sg615
g615
s(I4
I15
tp3067
g3067
sg617
g617
sg619
g619
sg621
g621
sg623
g623
sg625
g625
sg627
g627
s(I16
I16
tp3068
g3068
sg629
g629
sg631
g631
sg633
g633
sg635
g635
sg637
g637
sg639
g639
sg641
g641
sg643
g643
sg645
g645
sg647
g647
sg649
g649
s(I3
I0
tp3069
g3069
sg651
g651
sg653
g653
sg655
g655
sg657
g657
sg659
g659
sg661
g661
sg663
g663
sg665
g665
sg667
g667
sg669
g669
sg671
g671
sg673
g673
s(I15
I3
tp3070
g3070
sg675
g675
sg677
g677
sg679
g679
sg681
g681
sg683
g683
sg685
g685
sg687
g687
sg689
g689
sg691
g691
sg693
g693
sg695
g695
sg697
g697
sg699
g699
s(I9
I12
tp3071
g3071
sg701
g701
sg703
g703
sg705
g705
sg707
g707
sg709
g709
sg711
g711
sg713
g713
sg715
g715
sg717
g717
sg719
g719
sg721
g721
sg723
g723
sg725
g725
sg727
g727
sg729
g729
sg731
g731
sg733
g733
sg735
g735
sg737
g737
sg739
g739
sa.